target datalayout = "e-m:e-p270:32:32-p271:32:32-p272:64:64-i64:64-i128:128-f80:128-n8:16:32:64-S128"
target triple = "x86_64-pc-linux-gnu"

%struct._lv_svg_drawing_builder_state = type { ptr, ptr, i32, i8, i8, ptr, ptr, ptr }
%struct._lv_svg_draw_dsc = type { ptr, %struct._lv_vector_draw_dsc_t, ptr, ptr }
%struct._lv_vector_draw_dsc_t = type { %struct._lv_vector_fill_dsc_t, %struct._lv_vector_stroke_dsc_t, %struct._lv_matrix_t, i32, %struct.lv_area_t }
%struct._lv_vector_fill_dsc_t = type { i32, %struct.lv_color32_t, i8, i32, %struct._lv_draw_image_dsc_t, %struct._lv_vector_gradient_t, %struct._lv_matrix_t }
%struct.lv_color32_t = type { i8, i8, i8, i8 }
%struct._lv_draw_image_dsc_t = type { %struct.lv_draw_dsc_base_t, ptr, %struct.lv_image_header_t, i32, i32, i32, i32, i32, %struct.lv_point_t, %struct.lv_color_t, i8, i8, i8, ptr, %struct.lv_area_t, i32, ptr }
%struct.lv_draw_dsc_base_t = type { ptr, i32, i32, i32, ptr, i64, ptr }
%struct.lv_image_header_t = type <{ i64, i32 }>
%struct.lv_point_t = type { i32, i32 }
%struct.lv_color_t = type { i8, i8, i8 }
%struct._lv_vector_gradient_t = type { i32, [2 x %struct.lv_gradient_stop_t], i16, float, float, float, float, float, float, float, i32 }
%struct.lv_gradient_stop_t = type { %struct.lv_color_t, i8, i8 }
%struct._lv_vector_stroke_dsc_t = type { i32, %struct.lv_color32_t, i8, float, %struct._lv_array_t, i32, i32, i16, %struct._lv_vector_gradient_t, %struct._lv_matrix_t }
%struct._lv_array_t = type { ptr, i32, i32, i32, i8 }
%struct._lv_matrix_t = type { [3 x [3 x float]] }
%struct.lv_area_t = type { i32, i32, i32, i32 }
%struct.lv_svg_node_t = type { %struct._lv_tree_node_t, ptr, i8, %struct._lv_array_t, ptr }
%struct._lv_tree_node_t = type { ptr, ptr, i32, i32, ptr }

; Function Attrs: nounwind uwtable
define internal void @_copy_draw_dsc(ptr noundef %0, ptr noundef %1) #0 {
  %3 = alloca ptr, align 8
  %4 = alloca ptr, align 8
  store ptr %0, ptr %3, align 8, !tbaa !3
  store ptr %1, ptr %4, align 8, !tbaa !3
  %5 = load ptr, ptr %3, align 8, !tbaa !3
  %6 = getelementptr inbounds nuw %struct._lv_vector_draw_dsc_t, ptr %5, i32 0, i32 0
  %7 = load ptr, ptr %4, align 8, !tbaa !3
  %8 = getelementptr inbounds nuw %struct._lv_vector_draw_dsc_t, ptr %7, i32 0, i32 0
  %9 = call ptr @lv_memcpy(ptr noundef %6, ptr noundef %8, i64 noundef 248)
  %10 = load ptr, ptr %4, align 8, !tbaa !3
  %11 = getelementptr inbounds nuw %struct._lv_vector_draw_dsc_t, ptr %10, i32 0, i32 1
  %12 = getelementptr inbounds nuw %struct._lv_vector_stroke_dsc_t, ptr %11, i32 0, i32 0
  %13 = load i32, ptr %12, align 8, !tbaa !237
  %14 = load ptr, ptr %3, align 8, !tbaa !3
  %15 = getelementptr inbounds nuw %struct._lv_vector_draw_dsc_t, ptr %14, i32 0, i32 1
  %16 = getelementptr inbounds nuw %struct._lv_vector_stroke_dsc_t, ptr %15, i32 0, i32 0
  store i32 %13, ptr %16, align 8, !tbaa !237
  %17 = load ptr, ptr %3, align 8, !tbaa !3
  %18 = getelementptr inbounds nuw %struct._lv_vector_draw_dsc_t, ptr %17, i32 0, i32 1
  %19 = getelementptr inbounds nuw %struct._lv_vector_stroke_dsc_t, ptr %18, i32 0, i32 1
  %20 = load ptr, ptr %4, align 8, !tbaa !3
  %21 = getelementptr inbounds nuw %struct._lv_vector_draw_dsc_t, ptr %20, i32 0, i32 1
  %22 = getelementptr inbounds nuw %struct._lv_vector_stroke_dsc_t, ptr %21, i32 0, i32 1
  call void @llvm.memcpy.p0.p0.i64(ptr align 4 %19, ptr align 4 %22, i64 4, i1 false), !tbaa.struct !78
  %23 = load ptr, ptr %4, align 8, !tbaa !3
  %24 = getelementptr inbounds nuw %struct._lv_vector_draw_dsc_t, ptr %23, i32 0, i32 1
  %25 = getelementptr inbounds nuw %struct._lv_vector_stroke_dsc_t, ptr %24, i32 0, i32 2
  %26 = load i8, ptr %25, align 8, !tbaa !238
  %27 = load ptr, ptr %3, align 8, !tbaa !3
  %28 = getelementptr inbounds nuw %struct._lv_vector_draw_dsc_t, ptr %27, i32 0, i32 1
  %29 = getelementptr inbounds nuw %struct._lv_vector_stroke_dsc_t, ptr %28, i32 0, i32 2
  store i8 %26, ptr %29, align 8, !tbaa !238
  %30 = load ptr, ptr %4, align 8, !tbaa !3
  %31 = getelementptr inbounds nuw %struct._lv_vector_draw_dsc_t, ptr %30, i32 0, i32 1
  %32 = getelementptr inbounds nuw %struct._lv_vector_stroke_dsc_t, ptr %31, i32 0, i32 3
  %33 = load float, ptr %32, align 4, !tbaa !265
  %34 = load ptr, ptr %3, align 8, !tbaa !3
  %35 = getelementptr inbounds nuw %struct._lv_vector_draw_dsc_t, ptr %34, i32 0, i32 1
  %36 = getelementptr inbounds nuw %struct._lv_vector_stroke_dsc_t, ptr %35, i32 0, i32 3
  store float %33, ptr %36, align 4, !tbaa !265
  %37 = load ptr, ptr %4, align 8, !tbaa !3
  %38 = getelementptr inbounds nuw %struct._lv_vector_draw_dsc_t, ptr %37, i32 0, i32 1
  %39 = getelementptr inbounds nuw %struct._lv_vector_stroke_dsc_t, ptr %38, i32 0, i32 5
  %40 = load i32, ptr %39, align 8, !tbaa !266
  %41 = load ptr, ptr %3, align 8, !tbaa !3
  %42 = getelementptr inbounds nuw %struct._lv_vector_draw_dsc_t, ptr %41, i32 0, i32 1
  %43 = getelementptr inbounds nuw %struct._lv_vector_stroke_dsc_t, ptr %42, i32 0, i32 5
  store i32 %40, ptr %43, align 8, !tbaa !266
  %44 = load ptr, ptr %4, align 8, !tbaa !3
  %45 = getelementptr inbounds nuw %struct._lv_vector_draw_dsc_t, ptr %44, i32 0, i32 1
  %46 = getelementptr inbounds nuw %struct._lv_vector_stroke_dsc_t, ptr %45, i32 0, i32 6
  %47 = load i32, ptr %46, align 4, !tbaa !267
  %48 = load ptr, ptr %3, align 8, !tbaa !3
  %49 = getelementptr inbounds nuw %struct._lv_vector_draw_dsc_t, ptr %48, i32 0, i32 1
  %50 = getelementptr inbounds nuw %struct._lv_vector_stroke_dsc_t, ptr %49, i32 0, i32 6
  store i32 %47, ptr %50, align 4, !tbaa !267
  %51 = load ptr, ptr %4, align 8, !tbaa !3
  %52 = getelementptr inbounds nuw %struct._lv_vector_draw_dsc_t, ptr %51, i32 0, i32 1
  %53 = getelementptr inbounds nuw %struct._lv_vector_stroke_dsc_t, ptr %52, i32 0, i32 7
  %54 = load i16, ptr %53, align 8, !tbaa !268
  %55 = load ptr, ptr %3, align 8, !tbaa !3
  %56 = getelementptr inbounds nuw %struct._lv_vector_draw_dsc_t, ptr %55, i32 0, i32 1
  %57 = getelementptr inbounds nuw %struct._lv_vector_stroke_dsc_t, ptr %56, i32 0, i32 7
  store i16 %54, ptr %57, align 8, !tbaa !268
  %58 = load ptr, ptr %3, align 8, !tbaa !3
  %59 = getelementptr inbounds nuw %struct._lv_vector_draw_dsc_t, ptr %58, i32 0, i32 1
  %60 = getelementptr inbounds nuw %struct._lv_vector_stroke_dsc_t, ptr %59, i32 0, i32 4
  %61 = load ptr, ptr %4, align 8, !tbaa !3
  %62 = getelementptr inbounds nuw %struct._lv_vector_draw_dsc_t, ptr %61, i32 0, i32 1
  %63 = getelementptr inbounds nuw %struct._lv_vector_stroke_dsc_t, ptr %62, i32 0, i32 4
  call void @lv_array_copy(ptr noundef %60, ptr noundef %63)
  %64 = load ptr, ptr %3, align 8, !tbaa !3
  %65 = getelementptr inbounds nuw %struct._lv_vector_draw_dsc_t, ptr %64, i32 0, i32 1
  %66 = getelementptr inbounds nuw %struct._lv_vector_stroke_dsc_t, ptr %65, i32 0, i32 8
  %67 = load ptr, ptr %4, align 8, !tbaa !3
  %68 = getelementptr inbounds nuw %struct._lv_vector_draw_dsc_t, ptr %67, i32 0, i32 1
  %69 = getelementptr inbounds nuw %struct._lv_vector_stroke_dsc_t, ptr %68, i32 0, i32 8
  %70 = call ptr @lv_memcpy(ptr noundef %66, ptr noundef %69, i64 noundef 48)
  %71 = load ptr, ptr %3, align 8, !tbaa !3
  %72 = getelementptr inbounds nuw %struct._lv_vector_draw_dsc_t, ptr %71, i32 0, i32 1
  %73 = getelementptr inbounds nuw %struct._lv_vector_stroke_dsc_t, ptr %72, i32 0, i32 9
  %74 = load ptr, ptr %4, align 8, !tbaa !3
  %75 = getelementptr inbounds nuw %struct._lv_vector_draw_dsc_t, ptr %74, i32 0, i32 1
  %76 = getelementptr inbounds nuw %struct._lv_vector_stroke_dsc_t, ptr %75, i32 0, i32 9
  %77 = call ptr @lv_memcpy(ptr noundef %73, ptr noundef %76, i64 noundef 36)
  %78 = load ptr, ptr %4, align 8, !tbaa !3
  %79 = getelementptr inbounds nuw %struct._lv_vector_draw_dsc_t, ptr %78, i32 0, i32 3
  %80 = load i32, ptr %79, align 4, !tbaa !88
  %81 = load ptr, ptr %3, align 8, !tbaa !3
  %82 = getelementptr inbounds nuw %struct._lv_vector_draw_dsc_t, ptr %81, i32 0, i32 3
  store i32 %80, ptr %82, align 4, !tbaa !88
  ret void
}

; Function Attrs: nounwind uwtable
define internal ptr @_lv_svg_draw_dsc_push(ptr noundef %0) #0 {
  %2 = alloca ptr, align 8
  %3 = alloca ptr, align 8
  %4 = alloca ptr, align 8
  store ptr %0, ptr %3, align 8, !tbaa !3
  %5 = load ptr, ptr %3, align 8, !tbaa !3
  %6 = icmp ne ptr %5, null
  br i1 %6, label %8, label %7

7:                                                ; preds = %1
  store ptr null, ptr %2, align 8
  br label %40

8:                                                ; preds = %1
  call void @llvm.lifetime.start.p0(i64 8, ptr %4) #8
  %9 = call ptr @lv_malloc_zeroed(i64 noundef 464)
  store ptr %9, ptr %4, align 8, !tbaa !3
  br label %10

10:                                               ; preds = %8
  %11 = load ptr, ptr %4, align 8, !tbaa !3
  %12 = icmp ne ptr %11, null
  br i1 %12, label %19, label %13

13:                                               ; preds = %10
  br label %14

14:                                               ; preds = %13
  br label %15

15:                                               ; preds = %14
  br label %16

16:                                               ; preds = %15
  br label %17

17:                                               ; preds = %18, %16
  br label %18

18:                                               ; preds = %17
  br label %17

19:                                               ; preds = %10
  br label %20

20:                                               ; preds = %19
  br label %21

21:                                               ; preds = %20
  %22 = load ptr, ptr %4, align 8, !tbaa !3
  %23 = getelementptr inbounds nuw %struct._lv_svg_draw_dsc, ptr %22, i32 0, i32 1
  %24 = load ptr, ptr %3, align 8, !tbaa !3
  %25 = getelementptr inbounds nuw %struct._lv_svg_draw_dsc, ptr %24, i32 0, i32 1
  call void @_copy_draw_dsc(ptr noundef %23, ptr noundef %25)
  %26 = load ptr, ptr %3, align 8, !tbaa !3
  %27 = getelementptr inbounds nuw %struct._lv_svg_draw_dsc, ptr %26, i32 0, i32 2
  %28 = load ptr, ptr %27, align 8, !tbaa !162
  %29 = load ptr, ptr %4, align 8, !tbaa !3
  %30 = getelementptr inbounds nuw %struct._lv_svg_draw_dsc, ptr %29, i32 0, i32 2
  store ptr %28, ptr %30, align 8, !tbaa !162
  %31 = load ptr, ptr %3, align 8, !tbaa !3
  %32 = getelementptr inbounds nuw %struct._lv_svg_draw_dsc, ptr %31, i32 0, i32 3
  %33 = load ptr, ptr %32, align 8, !tbaa !163
  %34 = load ptr, ptr %4, align 8, !tbaa !3
  %35 = getelementptr inbounds nuw %struct._lv_svg_draw_dsc, ptr %34, i32 0, i32 3
  store ptr %33, ptr %35, align 8, !tbaa !163
  %36 = load ptr, ptr %3, align 8, !tbaa !3
  %37 = load ptr, ptr %4, align 8, !tbaa !3
  %38 = getelementptr inbounds nuw %struct._lv_svg_draw_dsc, ptr %37, i32 0, i32 0
  store ptr %36, ptr %38, align 8, !tbaa !67
  %39 = load ptr, ptr %4, align 8, !tbaa !3
  store ptr %39, ptr %2, align 8
  call void @llvm.lifetime.end.p0(i64 8, ptr %4) #8
  br label %40

40:                                               ; preds = %21, %7
  %41 = load ptr, ptr %2, align 8
  ret ptr %41
}

; Function Attrs: nounwind uwtable
define internal zeroext i1 @_lv_svg_doc_walk_before_cb(ptr noundef %0, ptr noundef %1) #0 {
  %3 = alloca ptr, align 8
  %4 = alloca ptr, align 8
  %5 = alloca ptr, align 8
  %6 = alloca ptr, align 8
  store ptr %0, ptr %3, align 8, !tbaa !3
  store ptr %1, ptr %4, align 8, !tbaa !3
  call void @llvm.lifetime.start.p0(i64 8, ptr %5) #8
  %7 = load ptr, ptr %4, align 8, !tbaa !3
  store ptr %7, ptr %5, align 8, !tbaa !3
  call void @llvm.lifetime.start.p0(i64 8, ptr %6) #8
  %8 = load ptr, ptr %3, align 8, !tbaa !3
  store ptr %8, ptr %6, align 8, !tbaa !3
  %9 = load ptr, ptr %6, align 8, !tbaa !3
  %10 = getelementptr inbounds nuw %struct.lv_svg_node_t, ptr %9, i32 0, i32 2
  %11 = load i8, ptr %10, align 8, !tbaa !57
  %12 = sext i8 %11 to i32
  %13 = icmp eq i32 %12, 23
  br i1 %13, label %14, label %20

14:                                               ; preds = %2
  %15 = load ptr, ptr %5, align 8, !tbaa !3
  %16 = getelementptr inbounds nuw %struct._lv_svg_drawing_builder_state, ptr %15, i32 0, i32 4
  store i8 1, ptr %16, align 1, !tbaa !30
  %17 = load ptr, ptr %6, align 8, !tbaa !3
  %18 = load ptr, ptr %5, align 8, !tbaa !3
  %19 = getelementptr inbounds nuw %struct._lv_svg_drawing_builder_state, ptr %18, i32 0, i32 5
  store ptr %17, ptr %19, align 8, !tbaa !31
  br label %20

20:                                               ; preds = %14, %2
  %21 = load ptr, ptr %6, align 8, !tbaa !3
  %22 = getelementptr inbounds nuw %struct.lv_svg_node_t, ptr %21, i32 0, i32 2
  %23 = load i8, ptr %22, align 8, !tbaa !57
  %24 = sext i8 %23 to i32
  %25 = icmp eq i32 %24, 15
  br i1 %25, label %26, label %29

26:                                               ; preds = %20
  %27 = load ptr, ptr %5, align 8, !tbaa !3
  %28 = getelementptr inbounds nuw %struct._lv_svg_drawing_builder_state, ptr %27, i32 0, i32 3
  store i8 1, ptr %28, align 4, !tbaa !29
  br label %29

29:                                               ; preds = %26, %20
  %30 = load ptr, ptr %6, align 8, !tbaa !3
  %31 = getelementptr inbounds nuw %struct.lv_svg_node_t, ptr %30, i32 0, i32 2
  %32 = load i8, ptr %31, align 8, !tbaa !57
  %33 = sext i8 %32 to i32
  %34 = icmp eq i32 %33, 3
  br i1 %34, label %35, label %40

35:                                               ; preds = %29
  %36 = load ptr, ptr %5, align 8, !tbaa !3
  %37 = getelementptr inbounds nuw %struct._lv_svg_drawing_builder_state, ptr %36, i32 0, i32 2
  %38 = load i32, ptr %37, align 8, !tbaa !28
  %39 = add nsw i32 %38, 1
  store i32 %39, ptr %37, align 8, !tbaa !28
  br label %40

40:                                               ; preds = %35, %29
  %41 = load ptr, ptr %5, align 8, !tbaa !3
  %42 = getelementptr inbounds nuw %struct._lv_svg_drawing_builder_state, ptr %41, i32 0, i32 1
  %43 = load ptr, ptr %42, align 8, !tbaa !27
  %44 = call ptr @_lv_svg_draw_dsc_push(ptr noundef %43)
  %45 = load ptr, ptr %5, align 8, !tbaa !3
  %46 = getelementptr inbounds nuw %struct._lv_svg_drawing_builder_state, ptr %45, i32 0, i32 1
  store ptr %44, ptr %46, align 8, !tbaa !27
  call void @llvm.lifetime.end.p0(i64 8, ptr %6) #8
  call void @llvm.lifetime.end.p0(i64 8, ptr %5) #8
  ret i1 true
}