; Function Attrs: nounwind uwtable
define internal noundef zeroext i1 @_lv_svg_doc_walk_before_cb(ptr noundef %0, ptr nocapture noundef %1) #0 {
  %3 = getelementptr inbounds nuw i8, ptr %0, i64 40
  %4 = load i8, ptr %3, align 8, !tbaa !57
  switch i8 %4, label %.thread12 [
    i8 23, label %.thread
    i8 15, label %7
    i8 3, label %9
  ]

.thread:                                          ; preds = %2
  %5 = getelementptr inbounds nuw i8, ptr %1, i64 21
  store i8 1, ptr %5, align 1, !tbaa !138
  %6 = getelementptr inbounds nuw i8, ptr %1, i64 24
  store ptr %0, ptr %6, align 8, !tbaa !139
  br label %.thread12

7:                                                ; preds = %2
  %8 = getelementptr inbounds nuw i8, ptr %1, i64 20
  store i8 1, ptr %8, align 4, !tbaa !130
  br label %.thread12

9:                                                ; preds = %2
  %10 = getelementptr inbounds nuw i8, ptr %1, i64 16
  %11 = load i32, ptr %10, align 8, !tbaa !134
  %12 = add nsw i32 %11, 1
  store i32 %12, ptr %10, align 8, !tbaa !134
  br label %.thread12

.thread12:                                        ; preds = %2, %7, %.thread, %9
  %13 = getelementptr inbounds nuw i8, ptr %1, i64 8
  %14 = load ptr, ptr %13, align 8, !tbaa !51
  %.not.i = icmp eq ptr %14, null
  br i1 %.not.i, label %_lv_svg_draw_dsc_push.exit, label %15

15:                                               ; preds = %.thread12
  %16 = tail call ptr @lv_malloc_zeroed(i64 noundef 464) #9
  %.not14.i = icmp eq ptr %16, null
  br i1 %.not14.i, label %.preheader.i, label %17

.preheader.i:                                     ; preds = %15, %.preheader.i
  br label %.preheader.i

17:                                               ; preds = %15
  %18 = getelementptr inbounds nuw i8, ptr %16, i64 8
  %19 = getelementptr inbounds nuw i8, ptr %14, i64 8
  %20 = tail call ptr @lv_memcpy(ptr noundef nonnull %18, ptr noundef nonnull %19, i64 noundef 248) #9
  %21 = getelementptr inbounds nuw i8, ptr %14, i64 256
  %22 = load i32, ptr %21, align 8, !tbaa !140
  %23 = getelementptr inbounds nuw i8, ptr %16, i64 256
  store i32 %22, ptr %23, align 8, !tbaa !140
  %24 = getelementptr inbounds nuw i8, ptr %16, i64 260
  %25 = getelementptr inbounds nuw i8, ptr %14, i64 260
  %26 = load i32, ptr %25, align 4
  store i32 %26, ptr %24, align 4
  %27 = getelementptr inbounds nuw i8, ptr %14, i64 264
  %28 = load i8, ptr %27, align 8, !tbaa !141
  %29 = getelementptr inbounds nuw i8, ptr %16, i64 264
  store i8 %28, ptr %29, align 8, !tbaa !141
  %30 = getelementptr inbounds nuw i8, ptr %14, i64 268
  %31 = load float, ptr %30, align 4, !tbaa !142
  %32 = getelementptr inbounds nuw i8, ptr %16, i64 268
  store float %31, ptr %32, align 4, !tbaa !142
  %33 = getelementptr inbounds nuw i8, ptr %14, i64 296
  %34 = load i32, ptr %33, align 8, !tbaa !143
  %35 = getelementptr inbounds nuw i8, ptr %16, i64 296
  store i32 %34, ptr %35, align 8, !tbaa !143
  %36 = getelementptr inbounds nuw i8, ptr %14, i64 300
  %37 = load i32, ptr %36, align 4, !tbaa !144
  %38 = getelementptr inbounds nuw i8, ptr %16, i64 300
  store i32 %37, ptr %38, align 4, !tbaa !144
  %39 = getelementptr inbounds nuw i8, ptr %14, i64 304
  %40 = load i16, ptr %39, align 8, !tbaa !145
  %41 = getelementptr inbounds nuw i8, ptr %16, i64 304
  store i16 %40, ptr %41, align 8, !tbaa !145
  %42 = getelementptr inbounds nuw i8, ptr %16, i64 272
  %43 = getelementptr inbounds nuw i8, ptr %14, i64 272
  tail call void @lv_array_copy(ptr noundef nonnull %42, ptr noundef nonnull %43) #9
  %44 = getelementptr inbounds nuw i8, ptr %16, i64 308
  %45 = getelementptr inbounds nuw i8, ptr %14, i64 308
  %46 = tail call ptr @lv_memcpy(ptr noundef nonnull %44, ptr noundef nonnull %45, i64 noundef 48) #9
  %47 = getelementptr inbounds nuw i8, ptr %16, i64 356
  %48 = getelementptr inbounds nuw i8, ptr %14, i64 356
  %49 = tail call ptr @lv_memcpy(ptr noundef nonnull %47, ptr noundef nonnull %48, i64 noundef 36) #9
  %50 = getelementptr inbounds nuw i8, ptr %14, i64 428
  %51 = load i32, ptr %50, align 4, !tbaa !47
  %52 = getelementptr inbounds nuw i8, ptr %16, i64 428
  store i32 %51, ptr %52, align 4, !tbaa !47
  %53 = getelementptr inbounds nuw i8, ptr %14, i64 448
  %54 = load ptr, ptr %53, align 8, !tbaa !123
  %55 = getelementptr inbounds nuw i8, ptr %16, i64 448
  store ptr %54, ptr %55, align 8, !tbaa !123
  %56 = getelementptr inbounds nuw i8, ptr %14, i64 456
  %57 = load ptr, ptr %56, align 8, !tbaa !125
  %58 = getelementptr inbounds nuw i8, ptr %16, i64 456
  store ptr %57, ptr %58, align 8, !tbaa !125
  store ptr %14, ptr %16, align 8, !tbaa !52
  br label %_lv_svg_draw_dsc_push.exit

_lv_svg_draw_dsc_push.exit:                       ; preds = %.thread12, %17
  %.0.i = phi ptr [ %16, %17 ], [ null, %.thread12 ]
  store ptr %.0.i, ptr %13, align 8, !tbaa !51
  ret i1 true
}